; Function Attrs: mustprogress nounwind uwtable
define hidden noundef zeroext i1 @_ZNK8ProjNode6pinnedEv(ptr nocapture noundef nonnull readonly align 8 dereferenceable(57) %0) unnamed_addr #1 align 2 {
  %2 = getelementptr inbounds i8, ptr %0, i64 8
  %3 = load ptr, ptr %2, align 8
  %4 = load ptr, ptr %3, align 8
  %5 = load ptr, ptr %4, align 8
  %6 = getelementptr inbounds i8, ptr %5, i64 176
  %7 = load ptr, ptr %6, align 8
  %8 = tail call noundef zeroext i1 %7(ptr noundef nonnull align 8 dereferenceable(52) %4) #6
  ret i1 %8
}